; Function Attrs: mustprogress uwtable
define hidden void @_ZNK4cvc58internal6theory5arith6linear18ConstraintDatabase17mutuallyExclusiveERSt6vectorINS0_9TrustNodeESaIS6_EEPNS3_10ConstraintESB_(ptr nocapture noundef nonnull readonly align 8 dereferenceable(488) %this, ptr noundef nonnull align 8 dereferenceable(24) %out, ptr nocapture noundef readonly %a, ptr nocapture noundef readonly %b) local_unnamed_addr #4 align 2 personality ptr @__gxx_personality_v0 {
entry:
  %la = alloca %"class.cvc5::internal::NodeTemplate", align 8
  %lb = alloca %"class.cvc5::internal::NodeTemplate", align 8
  %neg_la = alloca %"class.cvc5::internal::NodeTemplate", align 8
  %neg_lb = alloca %"class.cvc5::internal::NodeTemplate", align 8
  tail call void @llvm.experimental.noalias.scope.decl(metadata !323)
  %d_literal.i = getelementptr inbounds i8, ptr %a, i64 80
  %0 = load ptr, ptr %d_literal.i, align 8, !noalias !323
  store ptr %0, ptr %la, align 8, !alias.scope !323
  %bf.load.i.i.i = load i64, ptr %0, align 8, !noalias !323
  %bf.lshr.i.i.i = lshr i64 %bf.load.i.i.i, 40
  %1 = trunc i64 %bf.lshr.i.i.i to i32
  %bf.cast.i.i.i = and i32 %1, 1048575
  %cmp.i.i.i = icmp ult i32 %bf.cast.i.i.i, 1048574
  br i1 %cmp.i.i.i, label %if.then.i.i.i, label %if.else.i.i.i

if.then.i.i.i:                                    ; preds = %entry
  %bf.value.i.i.i = add i64 %bf.load.i.i.i, 1099511627776
  %bf.shl.i.i.i = and i64 %bf.value.i.i.i, 1152920405095219200
  %bf.clear7.i.i.i = and i64 %bf.load.i.i.i, -1152920405095219201
  %bf.set.i.i.i = or disjoint i64 %bf.shl.i.i.i, %bf.clear7.i.i.i
  store i64 %bf.set.i.i.i, ptr %0, align 8, !noalias !323
  br label %_ZNK4cvc58internal6theory5arith6linear10Constraint10getLiteralEv.exit

if.else.i.i.i:                                    ; preds = %entry
  %cmp12.i.i.i = icmp eq i32 %bf.cast.i.i.i, 1048574
  br i1 %cmp12.i.i.i, label %if.then13.i.i.i, label %_ZNK4cvc58internal6theory5arith6linear10Constraint10getLiteralEv.exit

if.then13.i.i.i:                                  ; preds = %if.else.i.i.i
  %bf.set23.i.i.i = or i64 %bf.load.i.i.i, 1152920405095219200
  store i64 %bf.set23.i.i.i, ptr %0, align 8, !noalias !323
  tail call void @_ZN4cvc58internal4expr9NodeValue20markRefCountMaxedOutEv(ptr noundef nonnull align 8 dereferenceable(16) %0), !noalias !323
  br label %_ZNK4cvc58internal6theory5arith6linear10Constraint10getLiteralEv.exit

_ZNK4cvc58internal6theory5arith6linear10Constraint10getLiteralEv.exit: ; preds = %if.then.i.i.i, %if.else.i.i.i, %if.then13.i.i.i
  tail call void @llvm.experimental.noalias.scope.decl(metadata !326)
  %d_literal.i6 = getelementptr inbounds i8, ptr %b, i64 80
  %2 = load ptr, ptr %d_literal.i6, align 8, !noalias !326
  store ptr %2, ptr %lb, align 8, !alias.scope !326
  %bf.load.i.i.i7 = load i64, ptr %2, align 8, !noalias !326
  %bf.lshr.i.i.i8 = lshr i64 %bf.load.i.i.i7, 40
  %3 = trunc i64 %bf.lshr.i.i.i8 to i32
  %bf.cast.i.i.i9 = and i32 %3, 1048575
  %cmp.i.i.i10 = icmp ult i32 %bf.cast.i.i.i9, 1048574
  br i1 %cmp.i.i.i10, label %if.then.i.i.i15, label %if.else.i.i.i11

if.then.i.i.i15:                                  ; preds = %_ZNK4cvc58internal6theory5arith6linear10Constraint10getLiteralEv.exit
  %bf.value.i.i.i16 = add i64 %bf.load.i.i.i7, 1099511627776
  %bf.shl.i.i.i17 = and i64 %bf.value.i.i.i16, 1152920405095219200
  %bf.clear7.i.i.i18 = and i64 %bf.load.i.i.i7, -1152920405095219201
  %bf.set.i.i.i19 = or disjoint i64 %bf.shl.i.i.i17, %bf.clear7.i.i.i18
  store i64 %bf.set.i.i.i19, ptr %2, align 8, !noalias !326
  br label %invoke.cont

if.else.i.i.i11:                                  ; preds = %_ZNK4cvc58internal6theory5arith6linear10Constraint10getLiteralEv.exit
  %cmp12.i.i.i12 = icmp eq i32 %bf.cast.i.i.i9, 1048574
  br i1 %cmp12.i.i.i12, label %if.then13.i.i.i13, label %invoke.cont

if.then13.i.i.i13:                                ; preds = %if.else.i.i.i11
  %bf.set23.i.i.i14 = or i64 %bf.load.i.i.i7, 1152920405095219200
  store i64 %bf.set23.i.i.i14, ptr %2, align 8, !noalias !326
  invoke void @_ZN4cvc58internal4expr9NodeValue20markRefCountMaxedOutEv(ptr noundef nonnull align 8 dereferenceable(16) %2)
          to label %invoke.cont unwind label %lpad

invoke.cont:                                      ; preds = %if.else.i.i.i11, %if.then.i.i.i15, %if.then13.i.i.i13
  invoke void @_ZNK4cvc58internal12NodeTemplateILb1EE6negateEv(ptr nonnull sret(%"class.cvc5::internal::NodeTemplate") align 8 %neg_la, ptr noundef nonnull align 8 dereferenceable(8) %la)
          to label %invoke.cont3 unwind label %lpad2

invoke.cont3:                                     ; preds = %invoke.cont
  invoke void @_ZNK4cvc58internal12NodeTemplateILb1EE6negateEv(ptr nonnull sret(%"class.cvc5::internal::NodeTemplate") align 8 %neg_lb, ptr noundef nonnull align 8 dereferenceable(8) %lb)
          to label %invoke.cont5 unwind label %lpad4

invoke.cont5:                                     ; preds = %invoke.cont3
  %d_negation.i = getelementptr inbounds i8, ptr %a, i64 88
  %4 = load ptr, ptr %d_negation.i, align 8
  %d_negation.i21 = getelementptr inbounds i8, ptr %b, i64 88
  %5 = load ptr, ptr %d_negation.i21, align 8
  invoke void @_ZNK4cvc58internal6theory5arith6linear18ConstraintDatabase7proveOrERSt6vectorINS0_9TrustNodeESaIS6_EEPNS3_10ConstraintESB_b(ptr noundef nonnull align 8 dereferenceable(488) %this, ptr noundef nonnull align 8 dereferenceable(24) %out, ptr noundef %4, ptr noundef %5, i1 noundef zeroext true)
          to label %invoke.cont10 unwind label %lpad6

invoke.cont10:                                    ; preds = %invoke.cont5
  %6 = load ptr, ptr %neg_lb, align 8
  %bf.load.i.i = load i64, ptr %6, align 8
  %7 = and i64 %bf.load.i.i, 1152920405095219200
  %cmp.not.i.i = icmp eq i64 %7, 1152920405095219200
  br i1 %cmp.not.i.i, label %_ZN4cvc58internal12NodeTemplateILb1EED2Ev.exit, label %if.then.i.i

if.then.i.i:                                      ; preds = %invoke.cont10
  %bf.value.i.i = add i64 %bf.load.i.i, 1152920405095219200
  %bf.shl.i.i = and i64 %bf.value.i.i, 1152920405095219200
  %bf.clear7.i.i = and i64 %bf.load.i.i, -1152920405095219201
  %bf.set.i.i = or disjoint i64 %bf.shl.i.i, %bf.clear7.i.i
  store i64 %bf.set.i.i, ptr %6, align 8
  %cmp12.i.i = icmp eq i64 %bf.shl.i.i, 0
  br i1 %cmp12.i.i, label %if.then13.i.i, label %_ZN4cvc58internal12NodeTemplateILb1EED2Ev.exit

if.then13.i.i:                                    ; preds = %if.then.i.i
  invoke void @_ZN4cvc58internal4expr9NodeValue15markForDeletionEv(ptr noundef nonnull align 8 dereferenceable(16) %6)
          to label %_ZN4cvc58internal12NodeTemplateILb1EED2Ev.exit unwind label %terminate.lpad.i

terminate.lpad.i:                                 ; preds = %if.then13.i.i
  %8 = landingpad { ptr, i32 }
          catch ptr null
  %9 = extractvalue { ptr, i32 } %8, 0
  call void @__clang_call_terminate(ptr %9) #23
  unreachable

_ZN4cvc58internal12NodeTemplateILb1EED2Ev.exit:   ; preds = %invoke.cont10, %if.then.i.i, %if.then13.i.i
  %10 = load ptr, ptr %neg_la, align 8
  %bf.load.i.i22 = load i64, ptr %10, align 8
  %11 = and i64 %bf.load.i.i22, 1152920405095219200
  %cmp.not.i.i23 = icmp eq i64 %11, 1152920405095219200
  br i1 %cmp.not.i.i23, label %_ZN4cvc58internal12NodeTemplateILb1EED2Ev.exit32, label %if.then.i.i24

if.then.i.i24:                                    ; preds = %_ZN4cvc58internal12NodeTemplateILb1EED2Ev.exit
  %bf.value.i.i25 = add i64 %bf.load.i.i22, 1152920405095219200
  %bf.shl.i.i26 = and i64 %bf.value.i.i25, 1152920405095219200
  %bf.clear7.i.i27 = and i64 %bf.load.i.i22, -1152920405095219201
  %bf.set.i.i28 = or disjoint i64 %bf.shl.i.i26, %bf.clear7.i.i27
  store i64 %bf.set.i.i28, ptr %10, align 8
  %cmp12.i.i29 = icmp eq i64 %bf.shl.i.i26, 0
  br i1 %cmp12.i.i29, label %if.then13.i.i30, label %_ZN4cvc58internal12NodeTemplateILb1EED2Ev.exit32

if.then13.i.i30:                                  ; preds = %if.then.i.i24
  invoke void @_ZN4cvc58internal4expr9NodeValue15markForDeletionEv(ptr noundef nonnull align 8 dereferenceable(16) %10)
          to label %_ZN4cvc58internal12NodeTemplateILb1EED2Ev.exit32 unwind label %terminate.lpad.i31

terminate.lpad.i31:                               ; preds = %if.then13.i.i30
  %12 = landingpad { ptr, i32 }
          catch ptr null
  %13 = extractvalue { ptr, i32 } %12, 0
  call void @__clang_call_terminate(ptr %13) #23
  unreachable

_ZN4cvc58internal12NodeTemplateILb1EED2Ev.exit32: ; preds = %_ZN4cvc58internal12NodeTemplateILb1EED2Ev.exit, %if.then.i.i24, %if.then13.i.i30
  %14 = load ptr, ptr %lb, align 8
  %bf.load.i.i33 = load i64, ptr %14, align 8
  %15 = and i64 %bf.load.i.i33, 1152920405095219200
  %cmp.not.i.i34 = icmp eq i64 %15, 1152920405095219200
  br i1 %cmp.not.i.i34, label %_ZN4cvc58internal12NodeTemplateILb1EED2Ev.exit43, label %if.then.i.i35

if.then.i.i35:                                    ; preds = %_ZN4cvc58internal12NodeTemplateILb1EED2Ev.exit32
  %bf.value.i.i36 = add i64 %bf.load.i.i33, 1152920405095219200
  %bf.shl.i.i37 = and i64 %bf.value.i.i36, 1152920405095219200
  %bf.clear7.i.i38 = and i64 %bf.load.i.i33, -1152920405095219201
  %bf.set.i.i39 = or disjoint i64 %bf.shl.i.i37, %bf.clear7.i.i38
  store i64 %bf.set.i.i39, ptr %14, align 8
  %cmp12.i.i40 = icmp eq i64 %bf.shl.i.i37, 0
  br i1 %cmp12.i.i40, label %if.then13.i.i41, label %_ZN4cvc58internal12NodeTemplateILb1EED2Ev.exit43

if.then13.i.i41:                                  ; preds = %if.then.i.i35
  invoke void @_ZN4cvc58internal4expr9NodeValue15markForDeletionEv(ptr noundef nonnull align 8 dereferenceable(16) %14)
          to label %_ZN4cvc58internal12NodeTemplateILb1EED2Ev.exit43 unwind label %terminate.lpad.i42

terminate.lpad.i42:                               ; preds = %if.then13.i.i41
  %16 = landingpad { ptr, i32 }
          catch ptr null
  %17 = extractvalue { ptr, i32 } %16, 0
  call void @__clang_call_terminate(ptr %17) #23
  unreachable

_ZN4cvc58internal12NodeTemplateILb1EED2Ev.exit43: ; preds = %_ZN4cvc58internal12NodeTemplateILb1EED2Ev.exit32, %if.then.i.i35, %if.then13.i.i41
  %18 = load ptr, ptr %la, align 8
  %bf.load.i.i44 = load i64, ptr %18, align 8
  %19 = and i64 %bf.load.i.i44, 1152920405095219200
  %cmp.not.i.i45 = icmp eq i64 %19, 1152920405095219200
  br i1 %cmp.not.i.i45, label %_ZN4cvc58internal12NodeTemplateILb1EED2Ev.exit54, label %if.then.i.i46

if.then.i.i46:                                    ; preds = %_ZN4cvc58internal12NodeTemplateILb1EED2Ev.exit43
  %bf.value.i.i47 = add i64 %bf.load.i.i44, 1152920405095219200
  %bf.shl.i.i48 = and i64 %bf.value.i.i47, 1152920405095219200
  %bf.clear7.i.i49 = and i64 %bf.load.i.i44, -1152920405095219201
  %bf.set.i.i50 = or disjoint i64 %bf.shl.i.i48, %bf.clear7.i.i49
  store i64 %bf.set.i.i50, ptr %18, align 8
  %cmp12.i.i51 = icmp eq i64 %bf.shl.i.i48, 0
  br i1 %cmp12.i.i51, label %if.then13.i.i52, label %_ZN4cvc58internal12NodeTemplateILb1EED2Ev.exit54

if.then13.i.i52:                                  ; preds = %if.then.i.i46
  invoke void @_ZN4cvc58internal4expr9NodeValue15markForDeletionEv(ptr noundef nonnull align 8 dereferenceable(16) %18)
          to label %_ZN4cvc58internal12NodeTemplateILb1EED2Ev.exit54 unwind label %terminate.lpad.i53

terminate.lpad.i53:                               ; preds = %if.then13.i.i52
  %20 = landingpad { ptr, i32 }
          catch ptr null
  %21 = extractvalue { ptr, i32 } %20, 0
  call void @__clang_call_terminate(ptr %21) #23
  unreachable

_ZN4cvc58internal12NodeTemplateILb1EED2Ev.exit54: ; preds = %_ZN4cvc58internal12NodeTemplateILb1EED2Ev.exit43, %if.then.i.i46, %if.then13.i.i52
  ret void

lpad:                                             ; preds = %if.then13.i.i.i13
  %22 = landingpad { ptr, i32 }
          cleanup
  br label %ehcleanup12

lpad2:                                            ; preds = %invoke.cont
  %23 = landingpad { ptr, i32 }
          cleanup
  br label %ehcleanup11

lpad4:                                            ; preds = %invoke.cont3
  %24 = landingpad { ptr, i32 }
          cleanup
  br label %ehcleanup

lpad6:                                            ; preds = %invoke.cont5
  %25 = landingpad { ptr, i32 }
          cleanup
  call void @_ZN4cvc58internal12NodeTemplateILb1EED2Ev(ptr noundef nonnull align 8 dereferenceable(8) %neg_lb) #24
  br label %ehcleanup

ehcleanup:                                        ; preds = %lpad6, %lpad4
  %.pn = phi { ptr, i32 } [ %25, %lpad6 ], [ %24, %lpad4 ]
  call void @_ZN4cvc58internal12NodeTemplateILb1EED2Ev(ptr noundef nonnull align 8 dereferenceable(8) %neg_la) #24
  br label %ehcleanup11

ehcleanup11:                                      ; preds = %ehcleanup, %lpad2
  %.pn.pn = phi { ptr, i32 } [ %.pn, %ehcleanup ], [ %23, %lpad2 ]
  call void @_ZN4cvc58internal12NodeTemplateILb1EED2Ev(ptr noundef nonnull align 8 dereferenceable(8) %lb) #24
  br label %ehcleanup12

ehcleanup12:                                      ; preds = %ehcleanup11, %lpad
  %.pn.pn.pn = phi { ptr, i32 } [ %.pn.pn, %ehcleanup11 ], [ %22, %lpad ]
  call void @_ZN4cvc58internal12NodeTemplateILb1EED2Ev(ptr noundef nonnull align 8 dereferenceable(8) %la) #24
  resume { ptr, i32 } %.pn.pn.pn
}